target datalayout = "e-m:e-p270:32:32-p271:32:32-p272:64:64-i64:64-i128:128-f80:128-n8:16:32:64-S128"
target triple = "x86_64-unknown-linux-gnu"

%"class.re2::RegexpStatus" = type { i32, %"class.absl::debian2::string_view", ptr }
%"class.absl::debian2::string_view" = type { ptr, i64 }

; Function Attrs: mustprogress nounwind uwtable
define void @_ZN3re212RegexpStatus4CopyERKS0_(ptr noundef nonnull align 8 dereferenceable(32) %this, ptr noundef nonnull align 8 dereferenceable(32) %status) #0 align 2 {
entry:
  %this.addr = alloca ptr, align 8
  %status.addr = alloca ptr, align 8
  store ptr %this, ptr %this.addr, align 8
  store ptr %status, ptr %status.addr, align 8
  %this1 = load ptr, ptr %this.addr, align 8
  %0 = load ptr, ptr %status.addr, align 8
  %code_ = getelementptr inbounds %"class.re2::RegexpStatus", ptr %0, i32 0, i32 0
  %1 = load i32, ptr %code_, align 8
  %code_2 = getelementptr inbounds %"class.re2::RegexpStatus", ptr %this1, i32 0, i32 0
  store i32 %1, ptr %code_2, align 8
  %2 = load ptr, ptr %status.addr, align 8
  %error_arg_ = getelementptr inbounds %"class.re2::RegexpStatus", ptr %2, i32 0, i32 1
  %error_arg_3 = getelementptr inbounds %"class.re2::RegexpStatus", ptr %this1, i32 0, i32 1
  call void @llvm.memcpy.p0.p0.i64(ptr align 8 %error_arg_3, ptr align 8 %error_arg_, i64 16, i1 false)
  ret void
}