; Function Attrs: mustprogress nofree norecurse nosync nounwind willreturn memory(argmem: readwrite) uwtable
define void @_ZN3re212RegexpStatus4CopyERKS0_(ptr nocapture noundef nonnull writeonly align 8 dereferenceable(32) %this, ptr nocapture noundef nonnull readonly align 8 dereferenceable(32) %status) local_unnamed_addr #11 align 2 {
entry:
  %0 = load i32, ptr %status, align 8
  store i32 %0, ptr %this, align 8
  %error_arg_ = getelementptr inbounds i8, ptr %status, i64 8
  %error_arg_3 = getelementptr inbounds i8, ptr %this, i64 8
  tail call void @llvm.memcpy.p0.p0.i64(ptr noundef nonnull align 8 dereferenceable(16) %error_arg_3, ptr noundef nonnull align 8 dereferenceable(16) %error_arg_, i64 16, i1 false)
  ret void
}